; Function Attrs: nounwind uwtable
define void @Pas_ManVerifyPhase(ptr noundef %0, ptr noundef readonly captures(none) %1, ptr noundef readonly captures(none) %2, ptr noundef readonly captures(none) %3) local_unnamed_addr #1 {
  %5 = getelementptr i8, ptr %2, i64 4
  %.val89 = load i32, ptr %5, align 4
  %6 = icmp sgt i32 %.val89, 0
  br i1 %6, label %.lr.ph, label %.critedge

.lr.ph:                                           ; preds = %4
  %7 = getelementptr i8, ptr %2, i64 8
  br label %8

8:                                                ; preds = %.lr.ph, %8
  %indvars.iv = phi i64 [ 0, %.lr.ph ], [ %indvars.iv.next, %8 ]
  %.val = load ptr, ptr %7, align 8
  %9 = getelementptr inbounds nuw i32, ptr %.val, i64 %indvars.iv
  %10 = load i32, ptr %9, align 4
  tail call void @Pas_ManVerifyPhaseOne(ptr noundef %0, ptr noundef %1, i32 noundef %10, ptr noundef %3)
  %indvars.iv.next = add nuw nsw i64 %indvars.iv, 1
  %.val8 = load i32, ptr %5, align 4
  %11 = sext i32 %.val8 to i64
  %12 = icmp slt i64 %indvars.iv.next, %11
  br i1 %12, label %8, label %.critedge, !llvm.loop !6

.critedge:                                        ; preds = %8, %4
  ret void
}